target datalayout = "e-m:e-p270:32:32-p271:32:32-p272:64:64-i64:64-i128:128-f80:128-n8:16:32:64-S128"
target triple = "x86_64-unknown-linux-gnu"

%"class.hermes::hbc::RuntimeFunctionHeader" = type { ptr }
%"struct.hermes::hbc::FunctionHeader" = type <{ i32, i32, i32, i32, i32, i32, i32, i8, i8, %"union.hermes::hbc::FunctionHeaderFlag" }>
%"union.hermes::hbc::FunctionHeaderFlag" = type { %struct.anon.45 }
%struct.anon.45 = type { i8 }

; Function Attrs: mustprogress nounwind uwtable
define linkonce_odr hidden noundef ptr @_ZNK6hermes3hbc21RuntimeFunctionHeader7asSmallEv(ptr noundef nonnull align 8 dereferenceable(8) %this) #0 comdat align 2 {
entry:
  %this.addr = alloca ptr, align 8
  store ptr %this, ptr %this.addr, align 8
  %this1 = load ptr, ptr %this.addr, align 8
  %ptr_ = getelementptr inbounds %"class.hermes::hbc::RuntimeFunctionHeader", ptr %this1, i32 0, i32 0
  %0 = load ptr, ptr %ptr_, align 8
  ret ptr %0
}

; Function Attrs: mustprogress nounwind uwtable
define linkonce_odr hidden noundef ptr @_ZNK6hermes3hbc21RuntimeFunctionHeader7asLargeEv(ptr noundef nonnull align 8 dereferenceable(8) %this) #0 comdat align 2 {
entry:
  %this.addr = alloca ptr, align 8
  store ptr %this, ptr %this.addr, align 8
  %this1 = load ptr, ptr %this.addr, align 8
  %ptr_ = getelementptr inbounds %"class.hermes::hbc::RuntimeFunctionHeader", ptr %this1, i32 0, i32 0
  %0 = load ptr, ptr %ptr_, align 8
  %add.ptr = getelementptr inbounds i8, ptr %0, i64 -1
  ret ptr %add.ptr
}

; Function Attrs: mustprogress nounwind uwtable
define linkonce_odr hidden noundef zeroext i1 @_ZNK6hermes3hbc21RuntimeFunctionHeader7isLargeEv(ptr noundef nonnull align 8 dereferenceable(8) %this) #0 comdat align 2 {
entry:
  %this.addr = alloca ptr, align 8
  store ptr %this, ptr %this.addr, align 8
  %this1 = load ptr, ptr %this.addr, align 8
  %ptr_ = getelementptr inbounds %"class.hermes::hbc::RuntimeFunctionHeader", ptr %this1, i32 0, i32 0
  %0 = load ptr, ptr %ptr_, align 8
  %1 = ptrtoint ptr %0 to i64
  %and = and i64 %1, 1
  %tobool = icmp ne i64 %and, 0
  ret i1 %tobool
}

; Function Attrs: mustprogress nounwind uwtable
define linkonce_odr hidden noundef i32 @_ZNK6hermes3hbc21RuntimeFunctionHeader19bytecodeSizeInBytesEv(ptr noundef nonnull align 8 dereferenceable(8) %this) #0 comdat align 2 {
entry:
  %retval = alloca i32, align 4
  %this.addr = alloca ptr, align 8
  store ptr %this, ptr %this.addr, align 8
  %this1 = load ptr, ptr %this.addr, align 8
  %call = call noundef zeroext i1 @_ZNK6hermes3hbc21RuntimeFunctionHeader7isLargeEv(ptr noundef nonnull align 8 dereferenceable(8) %this1)
  br i1 %call, label %if.then, label %if.else

if.then:                                          ; preds = %entry
  %call2 = call noundef ptr @_ZNK6hermes3hbc21RuntimeFunctionHeader7asLargeEv(ptr noundef nonnull align 8 dereferenceable(8) %this1)
  %bytecodeSizeInBytes = getelementptr inbounds %"struct.hermes::hbc::FunctionHeader", ptr %call2, i32 0, i32 2
  %0 = load i32, ptr %bytecodeSizeInBytes, align 1
  store i32 %0, ptr %retval, align 4
  br label %return

if.else:                                          ; preds = %entry
  %call3 = call noundef ptr @_ZNK6hermes3hbc21RuntimeFunctionHeader7asSmallEv(ptr noundef nonnull align 8 dereferenceable(8) %this1)
  %bf.load = load i120, ptr %call3, align 1
  %bf.lshr = lshr i120 %bf.load, 32
  %bf.clear = and i120 %bf.lshr, 32767
  %bf.cast = trunc i120 %bf.clear to i32
  store i32 %bf.cast, ptr %retval, align 4
  br label %return

return:                                           ; preds = %if.else, %if.then
  %1 = load i32, ptr %retval, align 4
  ret i32 %1
}

; Function Attrs: mustprogress nounwind uwtable
define hidden noundef i32 @_ZNK6hermes3hbc14BCProviderBase27getVirtualOffsetForFunctionEj(ptr noundef nonnull align 8 dereferenceable(280) %this, i32 noundef %functionID) #0 align 2 {
entry:
  %this.addr = alloca ptr, align 8
  %functionID.addr = alloca i32, align 4
  %virtualOffset = alloca i32, align 4
  %i = alloca i32, align 4
  %ref.tmp = alloca %"class.hermes::hbc::RuntimeFunctionHeader", align 8
  store ptr %this, ptr %this.addr, align 8
  store i32 %functionID, ptr %functionID.addr, align 4
  %this1 = load ptr, ptr %this.addr, align 8
  store i32 0, ptr %virtualOffset, align 4
  store i32 0, ptr %i, align 4
  br label %for.cond

for.cond:                                         ; preds = %for.inc, %entry
  %0 = load i32, ptr %i, align 4
  %1 = load i32, ptr %functionID.addr, align 4
  %cmp = icmp ult i32 %0, %1
  br i1 %cmp, label %for.body, label %for.end

for.body:                                         ; preds = %for.cond
  %2 = load i32, ptr %i, align 4
  %vtable = load ptr, ptr %this1, align 8
  %vfn = getelementptr inbounds ptr, ptr %vtable, i64 4
  %3 = load ptr, ptr %vfn, align 8
  %call = call ptr %3(ptr noundef nonnull align 8 dereferenceable(280) %this1, i32 noundef %2)
  %coerce.dive = getelementptr inbounds %"class.hermes::hbc::RuntimeFunctionHeader", ptr %ref.tmp, i32 0, i32 0
  store ptr %call, ptr %coerce.dive, align 8
  %call2 = call noundef i32 @_ZNK6hermes3hbc21RuntimeFunctionHeader19bytecodeSizeInBytesEv(ptr noundef nonnull align 8 dereferenceable(8) %ref.tmp)
  %4 = load i32, ptr %virtualOffset, align 4
  %add = add i32 %4, %call2
  store i32 %add, ptr %virtualOffset, align 4
  br label %for.inc

for.inc:                                          ; preds = %for.body
  %5 = load i32, ptr %i, align 4
  %inc = add i32 %5, 1
  store i32 %inc, ptr %i, align 4
  br label %for.cond, !llvm.loop !6

for.end:                                          ; preds = %for.cond
  %6 = load i32, ptr %virtualOffset, align 4
  ret i32 %6
}