; Function Attrs: mustprogress nounwind uwtable
define hidden noundef i32 @_ZNK6hermes3hbc14BCProviderBase27getVirtualOffsetForFunctionEj(ptr noundef nonnull align 8 dereferenceable(280) %this, i32 noundef %functionID) local_unnamed_addr #0 align 2 {
entry:
  %cmp4.not = icmp eq i32 %functionID, 0
  br i1 %cmp4.not, label %for.end, label %for.body

for.body:                                         ; preds = %entry, %_ZNK6hermes3hbc21RuntimeFunctionHeader19bytecodeSizeInBytesEv.exit
  %i.06 = phi i32 [ %inc, %_ZNK6hermes3hbc21RuntimeFunctionHeader19bytecodeSizeInBytesEv.exit ], [ 0, %entry ]
  %virtualOffset.05 = phi i32 [ %add, %_ZNK6hermes3hbc21RuntimeFunctionHeader19bytecodeSizeInBytesEv.exit ], [ 0, %entry ]
  %vtable = load ptr, ptr %this, align 8
  %vfn = getelementptr inbounds i8, ptr %vtable, i64 32
  %0 = load ptr, ptr %vfn, align 8
  %call = tail call ptr %0(ptr noundef nonnull align 8 dereferenceable(280) %this, i32 noundef %i.06) #19
  %1 = ptrtoint ptr %call to i64
  %and.i.i = and i64 %1, 1
  %tobool.i.not.i = icmp eq i64 %and.i.i, 0
  br i1 %tobool.i.not.i, label %if.else.i, label %if.then.i

if.then.i:                                        ; preds = %for.body
  %bytecodeSizeInBytes.i = getelementptr inbounds i8, ptr %call, i64 7
  %2 = load i32, ptr %bytecodeSizeInBytes.i, align 1
  br label %_ZNK6hermes3hbc21RuntimeFunctionHeader19bytecodeSizeInBytesEv.exit

if.else.i:                                        ; preds = %for.body
  %bf.load.i = load i120, ptr %call, align 1
  %bf.lshr.i = lshr i120 %bf.load.i, 32
  %3 = trunc i120 %bf.lshr.i to i32
  %bf.cast.i = and i32 %3, 32767
  br label %_ZNK6hermes3hbc21RuntimeFunctionHeader19bytecodeSizeInBytesEv.exit

_ZNK6hermes3hbc21RuntimeFunctionHeader19bytecodeSizeInBytesEv.exit: ; preds = %if.then.i, %if.else.i
  %retval.0.i = phi i32 [ %2, %if.then.i ], [ %bf.cast.i, %if.else.i ]
  %add = add i32 %retval.0.i, %virtualOffset.05
  %inc = add nuw i32 %i.06, 1
  %exitcond.not = icmp eq i32 %inc, %functionID
  br i1 %exitcond.not, label %for.end, label %for.body, !llvm.loop !6

for.end:                                          ; preds = %_ZNK6hermes3hbc21RuntimeFunctionHeader19bytecodeSizeInBytesEv.exit, %entry
  %virtualOffset.0.lcssa = phi i32 [ 0, %entry ], [ %add, %_ZNK6hermes3hbc21RuntimeFunctionHeader19bytecodeSizeInBytesEv.exit ]
  ret i32 %virtualOffset.0.lcssa
}